target datalayout = "e-m:e-p270:32:32-p271:32:32-p272:64:64-i64:64-i128:128-f80:128-n8:16:32:64-S128"
target triple = "x86_64-pc-linux-gnu"

%"class.net::QuicPacketCreator" = type { ptr, ptr, ptr, %"class.net::QuicPacketCreator::QuicRandomBoolSource", ptr, i8, i8, i8, i8, %"struct.std::array", i64, i64, i32, %"class.std::vector", i64, i64, %"struct.net::SerializedPacket", %"class.std::unordered_map" }
%"class.net::QuicPacketCreator::QuicRandomBoolSource" = type { ptr, i64, i64 }
%"struct.std::array" = type { [32 x i8] }
%"class.std::vector" = type { %"struct.std::_Vector_base" }
%"struct.std::_Vector_base" = type { %"struct.std::_Vector_base<net::QuicFrame, std::allocator<net::QuicFrame>>::_Vector_impl" }
%"struct.std::_Vector_base<net::QuicFrame, std::allocator<net::QuicFrame>>::_Vector_impl" = type { %"struct.std::_Vector_base<net::QuicFrame, std::allocator<net::QuicFrame>>::_Vector_impl_data" }
%"struct.std::_Vector_base<net::QuicFrame, std::allocator<net::QuicFrame>>::_Vector_impl_data" = type { ptr, ptr, ptr }
%"struct.net::SerializedPacket" = type { ptr, i16, %"class.std::vector", i8, i16, i8, i64, i8, i8, i8, i8, i8, i8, i8, i64, %"class.std::__cxx11::list" }
%"class.std::__cxx11::list" = type { %"class.std::__cxx11::_List_base" }
%"class.std::__cxx11::_List_base" = type { %"struct.std::__cxx11::_List_base<net::AckListenerWrapper, std::allocator<net::AckListenerWrapper>>::_List_impl" }
%"struct.std::__cxx11::_List_base<net::AckListenerWrapper, std::allocator<net::AckListenerWrapper>>::_List_impl" = type { %"struct.std::__detail::_List_node_header" }
%"struct.std::__detail::_List_node_header" = type { %"struct.std::__detail::_List_node_base", i64 }
%"struct.std::__detail::_List_node_base" = type { ptr, ptr }
%"class.std::unordered_map" = type { %"class.std::_Hashtable" }
%"class.std::_Hashtable" = type { ptr, i64, %"struct.std::__detail::_Hash_node_base", i64, %"struct.std::__detail::_Prime_rehash_policy", ptr }
%"struct.std::__detail::_Hash_node_base" = type { ptr }
%"struct.std::__detail::_Prime_rehash_policy" = type { float, i64 }
%"struct.std::_List_iterator" = type { ptr }
%"struct.std::_List_node" = type { %"struct.std::__detail::_List_node_base", %"struct.__gnu_cxx::__aligned_membuf" }
%"struct.__gnu_cxx::__aligned_membuf" = type { [16 x i8] }
%"struct.std::__allocated_ptr" = type { ptr, ptr }

; Function Attrs: mustprogress nounwind uwtable
define linkonce_odr noundef i64 @_ZNKSt15__new_allocatorISt10_List_nodeIN3net18AckListenerWrapperEEE11_M_max_sizeEv(ptr noundef nonnull align 1 dereferenceable(1) %0) #1 comdat align 2 {
  %2 = alloca ptr, align 8
  store ptr %0, ptr %2, align 8, !tbaa !370
  ret i64 288230376151711743
}

; Function Attrs: mustprogress nounwind uwtable
define linkonce_odr void @_ZNSt15__new_allocatorISt10_List_nodeIN3net18AckListenerWrapperEEE10deallocateEPS3_m(ptr noundef nonnull align 1 dereferenceable(1) %0, ptr noundef %1, i64 noundef %2) #1 comdat align 2 {
  %4 = alloca ptr, align 8
  %5 = alloca ptr, align 8
  %6 = alloca i64, align 8
  store ptr %0, ptr %4, align 8, !tbaa !370
  store ptr %1, ptr %5, align 8, !tbaa !361
  store i64 %2, ptr %6, align 8, !tbaa !8
  %7 = load ptr, ptr %5, align 8, !tbaa !361
  call void @_ZdlPv(ptr noundef %7) #19
  ret void
}

; Function Attrs: mustprogress nounwind uwtable
define linkonce_odr noundef ptr @_ZN9__gnu_cxx16__aligned_membufIN3net18AckListenerWrapperEE7_M_addrEv(ptr noundef nonnull align 8 dereferenceable(16) %0) #1 comdat align 2 {
  %2 = alloca ptr, align 8
  store ptr %0, ptr %2, align 8, !tbaa !368
  %3 = load ptr, ptr %2, align 8
  %4 = getelementptr inbounds nuw %"struct.__gnu_cxx::__aligned_membuf", ptr %3, i32 0, i32 0
  ret ptr %4
}

; Function Attrs: mustprogress uwtable
define linkonce_odr noundef ptr @_ZNSt15__new_allocatorISt10_List_nodeIN3net18AckListenerWrapperEEE8allocateEmPKv(ptr noundef nonnull align 1 dereferenceable(1) %0, i64 noundef %1, ptr noundef %2) #0 comdat align 2 {
  %4 = alloca ptr, align 8
  %5 = alloca i64, align 8
  %6 = alloca ptr, align 8
  store ptr %0, ptr %4, align 8, !tbaa !370
  store i64 %1, ptr %5, align 8, !tbaa !8
  store ptr %2, ptr %6, align 8, !tbaa !404
  %7 = load ptr, ptr %4, align 8
  %8 = load i64, ptr %5, align 8, !tbaa !8
  %9 = call noundef i64 @_ZNKSt15__new_allocatorISt10_List_nodeIN3net18AckListenerWrapperEEE11_M_max_sizeEv(ptr noundef nonnull align 1 dereferenceable(1) %7) #16
  %10 = icmp ugt i64 %8, %9
  %11 = zext i1 %10 to i64
  %12 = call i64 @llvm.expect.i64(i64 %11, i64 0)
  %13 = icmp ne i64 %12, 0
  br i1 %13, label %14, label %19

14:                                               ; preds = %3
  %15 = load i64, ptr %5, align 8, !tbaa !8
  %16 = icmp ugt i64 %15, 576460752303423487
  br i1 %16, label %17, label %18

17:                                               ; preds = %14
  call void @_ZSt28__throw_bad_array_new_lengthv() #21
  unreachable

18:                                               ; preds = %14
  call void @_ZSt17__throw_bad_allocv() #21
  unreachable

19:                                               ; preds = %3
  %20 = load i64, ptr %5, align 8, !tbaa !8
  %21 = mul i64 %20, 32
  %22 = call noalias noundef nonnull ptr @_Znwm(i64 noundef %21) #20
  ret ptr %22
}

; Function Attrs: noinline noreturn nounwind uwtable
define linkonce_odr hidden void @__clang_call_terminate(ptr noundef %0) #5 comdat {
  %2 = call ptr @__cxa_begin_catch(ptr %0) #16
  call void @_ZSt9terminatev() #17
  unreachable
}

; Function Attrs: mustprogress uwtable
define linkonce_odr void @_ZNSt16allocator_traitsISaISt10_List_nodeIN3net18AckListenerWrapperEEEE10deallocateERS4_PS3_m(ptr noundef nonnull align 1 dereferenceable(1) %0, ptr noundef %1, i64 noundef %2) #0 comdat align 2 {
  %4 = alloca ptr, align 8
  %5 = alloca ptr, align 8
  %6 = alloca i64, align 8
  store ptr %0, ptr %4, align 8, !tbaa !366
  store ptr %1, ptr %5, align 8, !tbaa !361
  store i64 %2, ptr %6, align 8, !tbaa !8
  %7 = load ptr, ptr %4, align 8, !tbaa !366
  %8 = load ptr, ptr %5, align 8, !tbaa !361
  %9 = load i64, ptr %6, align 8, !tbaa !8
  call void @_ZNSt15__new_allocatorISt10_List_nodeIN3net18AckListenerWrapperEEE10deallocateEPS3_m(ptr noundef nonnull align 1 dereferenceable(1) %7, ptr noundef %8, i64 noundef %9)
  ret void
}

; Function Attrs: mustprogress uwtable
define linkonce_odr void @_ZNSt15__new_allocatorISt10_List_nodeIN3net18AckListenerWrapperEEE9constructIS2_JRPNS1_24QuicAckListenerInterfaceERtEEEvPT_DpOT0_(ptr noundef nonnull align 1 dereferenceable(1) %0, ptr noundef %1, ptr noundef nonnull align 8 dereferenceable(8) %2, ptr noundef nonnull align 2 dereferenceable(2) %3) #0 comdat align 2 {
  %5 = alloca ptr, align 8
  %6 = alloca ptr, align 8
  %7 = alloca ptr, align 8
  %8 = alloca ptr, align 8
  store ptr %0, ptr %5, align 8, !tbaa !370
  store ptr %1, ptr %6, align 8, !tbaa !363
  store ptr %2, ptr %7, align 8, !tbaa !227
  store ptr %3, ptr %8, align 8, !tbaa !231
  %9 = load ptr, ptr %6, align 8, !tbaa !363
  %10 = load ptr, ptr %7, align 8, !tbaa !227
  %11 = load ptr, ptr %10, align 8, !tbaa !202
  %12 = load ptr, ptr %8, align 8, !tbaa !231
  %13 = load i16, ptr %12, align 2, !tbaa !153
  call void @_ZN3net18AckListenerWrapperC1EPNS_24QuicAckListenerInterfaceEt(ptr noundef nonnull align 8 dereferenceable(10) %9, ptr noundef %11, i16 noundef zeroext %13)
  ret void
}

; Function Attrs: mustprogress nounwind uwtable
define linkonce_odr noundef ptr @_ZN9__gnu_cxx16__aligned_membufIN3net18AckListenerWrapperEE6_M_ptrEv(ptr noundef nonnull align 8 dereferenceable(16) %0) #1 comdat align 2 {
  %2 = alloca ptr, align 8
  store ptr %0, ptr %2, align 8, !tbaa !368
  %3 = load ptr, ptr %2, align 8
  %4 = call noundef ptr @_ZN9__gnu_cxx16__aligned_membufIN3net18AckListenerWrapperEE7_M_addrEv(ptr noundef nonnull align 8 dereferenceable(16) %3) #16
  ret ptr %4
}

; Function Attrs: mustprogress uwtable
define linkonce_odr noundef ptr @_ZNSt16allocator_traitsISaISt10_List_nodeIN3net18AckListenerWrapperEEEE8allocateERS4_m(ptr noundef nonnull align 1 dereferenceable(1) %0, i64 noundef %1) #0 comdat align 2 {
  %3 = alloca ptr, align 8
  %4 = alloca i64, align 8
  store ptr %0, ptr %3, align 8, !tbaa !366
  store i64 %1, ptr %4, align 8, !tbaa !8
  %5 = load ptr, ptr %3, align 8, !tbaa !366
  %6 = load i64, ptr %4, align 8, !tbaa !8
  %7 = call noundef ptr @_ZNSt15__new_allocatorISt10_List_nodeIN3net18AckListenerWrapperEEE8allocateEmPKv(ptr noundef nonnull align 1 dereferenceable(1) %5, i64 noundef %6, ptr noundef null)
  ret ptr %7
}

; Function Attrs: mustprogress nounwind uwtable
define linkonce_odr void @_ZNSt15__allocated_ptrISaISt10_List_nodeIN3net18AckListenerWrapperEEEED2Ev(ptr noundef nonnull align 8 dereferenceable(16) %0) unnamed_addr #1 comdat align 2 personality ptr @__gxx_personality_v0 {
  %2 = alloca ptr, align 8
  store ptr %0, ptr %2, align 8, !tbaa !397
  %3 = load ptr, ptr %2, align 8
  %4 = getelementptr inbounds nuw %"struct.std::__allocated_ptr", ptr %3, i32 0, i32 1
  %5 = load ptr, ptr %4, align 8, !tbaa !401
  %6 = icmp ne ptr %5, null
  br i1 %6, label %7, label %13

7:                                                ; preds = %1
  %8 = getelementptr inbounds nuw %"struct.std::__allocated_ptr", ptr %3, i32 0, i32 0
  %9 = load ptr, ptr %8, align 8, !tbaa !399
  %10 = getelementptr inbounds nuw %"struct.std::__allocated_ptr", ptr %3, i32 0, i32 1
  %11 = load ptr, ptr %10, align 8, !tbaa !401
  invoke void @_ZNSt16allocator_traitsISaISt10_List_nodeIN3net18AckListenerWrapperEEEE10deallocateERS4_PS3_m(ptr noundef nonnull align 1 dereferenceable(1) %9, ptr noundef %11, i64 noundef 1)
          to label %12 unwind label %14

12:                                               ; preds = %7
  br label %13

13:                                               ; preds = %12, %1
  ret void

14:                                               ; preds = %7
  %15 = landingpad { ptr, i32 }
          catch ptr null
  %16 = extractvalue { ptr, i32 } %15, 0
  call void @__clang_call_terminate(ptr %16) #17
  unreachable
}

; Function Attrs: mustprogress nounwind uwtable
define linkonce_odr noundef nonnull align 8 dereferenceable(16) ptr @_ZNSt15__allocated_ptrISaISt10_List_nodeIN3net18AckListenerWrapperEEEEaSEDn(ptr noundef nonnull align 8 dereferenceable(16) %0, ptr %1) #1 comdat align 2 {
  %3 = alloca ptr, align 8
  %4 = alloca ptr, align 8
  store ptr %0, ptr %3, align 8, !tbaa !397
  store ptr %1, ptr %4, align 8, !tbaa !402
  %5 = load ptr, ptr %3, align 8
  %6 = getelementptr inbounds nuw %"struct.std::__allocated_ptr", ptr %5, i32 0, i32 1
  store ptr null, ptr %6, align 8, !tbaa !401
  ret ptr %5
}

; Function Attrs: mustprogress uwtable
define linkonce_odr void @_ZNSt16allocator_traitsISaISt10_List_nodeIN3net18AckListenerWrapperEEEE9constructIS2_JRPNS1_24QuicAckListenerInterfaceERtEEEvRS4_PT_DpOT0_(ptr noundef nonnull align 1 dereferenceable(1) %0, ptr noundef %1, ptr noundef nonnull align 8 dereferenceable(8) %2, ptr noundef nonnull align 2 dereferenceable(2) %3) #0 comdat align 2 {
  %5 = alloca ptr, align 8
  %6 = alloca ptr, align 8
  %7 = alloca ptr, align 8
  %8 = alloca ptr, align 8
  store ptr %0, ptr %5, align 8, !tbaa !366
  store ptr %1, ptr %6, align 8, !tbaa !363
  store ptr %2, ptr %7, align 8, !tbaa !227
  store ptr %3, ptr %8, align 8, !tbaa !231
  %9 = load ptr, ptr %5, align 8, !tbaa !366
  %10 = load ptr, ptr %6, align 8, !tbaa !363
  %11 = load ptr, ptr %7, align 8, !tbaa !227
  %12 = load ptr, ptr %8, align 8, !tbaa !231
  call void @_ZNSt15__new_allocatorISt10_List_nodeIN3net18AckListenerWrapperEEE9constructIS2_JRPNS1_24QuicAckListenerInterfaceERtEEEvPT_DpOT0_(ptr noundef nonnull align 1 dereferenceable(1) %9, ptr noundef %10, ptr noundef nonnull align 8 dereferenceable(8) %11, ptr noundef nonnull align 2 dereferenceable(2) %12)
  ret void
}

; Function Attrs: mustprogress nounwind uwtable
define linkonce_odr noundef ptr @_ZNSt10_List_nodeIN3net18AckListenerWrapperEE9_M_valptrEv(ptr noundef nonnull align 8 dereferenceable(32) %0) #1 comdat align 2 {
  %2 = alloca ptr, align 8
  store ptr %0, ptr %2, align 8, !tbaa !361
  %3 = load ptr, ptr %2, align 8
  %4 = getelementptr inbounds nuw %"struct.std::_List_node", ptr %3, i32 0, i32 1
  %5 = call noundef ptr @_ZN9__gnu_cxx16__aligned_membufIN3net18AckListenerWrapperEE6_M_ptrEv(ptr noundef nonnull align 8 dereferenceable(16) %4) #16
  ret ptr %5
}

; Function Attrs: mustprogress nounwind uwtable
define linkonce_odr void @_ZNSt15__allocated_ptrISaISt10_List_nodeIN3net18AckListenerWrapperEEEEC2ERS4_PS3_(ptr noundef nonnull align 8 dereferenceable(16) %0, ptr noundef nonnull align 1 dereferenceable(1) %1, ptr noundef %2) unnamed_addr #1 comdat align 2 {
  %4 = alloca ptr, align 8
  %5 = alloca ptr, align 8
  %6 = alloca ptr, align 8
  store ptr %0, ptr %4, align 8, !tbaa !397
  store ptr %1, ptr %5, align 8, !tbaa !366
  store ptr %2, ptr %6, align 8, !tbaa !361
  %7 = load ptr, ptr %4, align 8
  %8 = getelementptr inbounds nuw %"struct.std::__allocated_ptr", ptr %7, i32 0, i32 0
  %9 = load ptr, ptr %5, align 8, !tbaa !366
  store ptr %9, ptr %8, align 8, !tbaa !399
  %10 = getelementptr inbounds nuw %"struct.std::__allocated_ptr", ptr %7, i32 0, i32 1
  %11 = load ptr, ptr %6, align 8, !tbaa !361
  store ptr %11, ptr %10, align 8, !tbaa !401
  ret void
}

; Function Attrs: mustprogress nounwind uwtable
define linkonce_odr noundef nonnull align 1 dereferenceable(1) ptr @_ZNSt7__cxx1110_List_baseIN3net18AckListenerWrapperESaIS2_EE21_M_get_Node_allocatorEv(ptr noundef nonnull align 8 dereferenceable(24) %0) #1 comdat align 2 {
  %2 = alloca ptr, align 8
  store ptr %0, ptr %2, align 8, !tbaa !357
  %3 = load ptr, ptr %2, align 8
  %4 = getelementptr inbounds nuw %"class.std::__cxx11::_List_base", ptr %3, i32 0, i32 0
  ret ptr %4
}

; Function Attrs: mustprogress uwtable
define linkonce_odr noundef ptr @_ZNSt7__cxx1110_List_baseIN3net18AckListenerWrapperESaIS2_EE11_M_get_nodeEv(ptr noundef nonnull align 8 dereferenceable(24) %0) #0 comdat align 2 {
  %2 = alloca ptr, align 8
  store ptr %0, ptr %2, align 8, !tbaa !357
  %3 = load ptr, ptr %2, align 8
  %4 = getelementptr inbounds nuw %"class.std::__cxx11::_List_base", ptr %3, i32 0, i32 0
  %5 = call noundef ptr @_ZNSt16allocator_traitsISaISt10_List_nodeIN3net18AckListenerWrapperEEEE8allocateERS4_m(ptr noundef nonnull align 1 dereferenceable(1) %4, i64 noundef 1)
  ret ptr %5
}

; Function Attrs: mustprogress nounwind uwtable
define linkonce_odr void @_ZNSt7__cxx1110_List_baseIN3net18AckListenerWrapperESaIS2_EE11_M_inc_sizeEm(ptr noundef nonnull align 8 dereferenceable(24) %0, i64 noundef %1) #1 comdat align 2 {
  %3 = alloca ptr, align 8
  %4 = alloca i64, align 8
  store ptr %0, ptr %3, align 8, !tbaa !357
  store i64 %1, ptr %4, align 8, !tbaa !8
  %5 = load ptr, ptr %3, align 8
  %6 = load i64, ptr %4, align 8, !tbaa !8
  %7 = getelementptr inbounds nuw %"class.std::__cxx11::_List_base", ptr %5, i32 0, i32 0
  %8 = getelementptr inbounds nuw %"struct.std::__cxx11::_List_base<net::AckListenerWrapper, std::allocator<net::AckListenerWrapper>>::_List_impl", ptr %7, i32 0, i32 0
  %9 = getelementptr inbounds nuw %"struct.std::__detail::_List_node_header", ptr %8, i32 0, i32 1
  %10 = load i64, ptr %9, align 8, !tbaa !396
  %11 = add i64 %10, %6
  store i64 %11, ptr %9, align 8, !tbaa !396
  ret void
}

; Function Attrs: mustprogress uwtable
define linkonce_odr noundef ptr @_ZNSt7__cxx114listIN3net18AckListenerWrapperESaIS2_EE14_M_create_nodeIJRPNS1_24QuicAckListenerInterfaceERtEEEPSt10_List_nodeIS2_EDpOT_(ptr noundef nonnull align 8 dereferenceable(24) %0, ptr noundef nonnull align 8 dereferenceable(8) %1, ptr noundef nonnull align 2 dereferenceable(2) %2) #0 comdat align 2 personality ptr @__gxx_personality_v0 {
  %4 = alloca ptr, align 8
  %5 = alloca ptr, align 8
  %6 = alloca ptr, align 8
  %7 = alloca ptr, align 8
  %8 = alloca ptr, align 8
  %9 = alloca %"struct.std::__allocated_ptr", align 8
  %10 = alloca ptr, align 8
  %11 = alloca i32, align 4
  store ptr %0, ptr %4, align 8, !tbaa !198
  store ptr %1, ptr %5, align 8, !tbaa !227
  store ptr %2, ptr %6, align 8, !tbaa !231
  %12 = load ptr, ptr %4, align 8
  call void @llvm.lifetime.start.p0(i64 8, ptr %7) #16
  %13 = call noundef ptr @_ZNSt7__cxx1110_List_baseIN3net18AckListenerWrapperESaIS2_EE11_M_get_nodeEv(ptr noundef nonnull align 8 dereferenceable(24) %12)
  store ptr %13, ptr %7, align 8, !tbaa !361
  call void @llvm.lifetime.start.p0(i64 8, ptr %8) #16
  %14 = call noundef nonnull align 1 dereferenceable(1) ptr @_ZNSt7__cxx1110_List_baseIN3net18AckListenerWrapperESaIS2_EE21_M_get_Node_allocatorEv(ptr noundef nonnull align 8 dereferenceable(24) %12) #16
  store ptr %14, ptr %8, align 8, !tbaa !366
  call void @llvm.lifetime.start.p0(i64 16, ptr %9) #16
  %15 = load ptr, ptr %8, align 8, !tbaa !366
  %16 = load ptr, ptr %7, align 8, !tbaa !361
  call void @_ZNSt15__allocated_ptrISaISt10_List_nodeIN3net18AckListenerWrapperEEEEC2ERS4_PS3_(ptr noundef nonnull align 8 dereferenceable(16) %9, ptr noundef nonnull align 1 dereferenceable(1) %15, ptr noundef %16) #16
  %17 = load ptr, ptr %8, align 8, !tbaa !366
  %18 = load ptr, ptr %7, align 8, !tbaa !361
  %19 = call noundef ptr @_ZNSt10_List_nodeIN3net18AckListenerWrapperEE9_M_valptrEv(ptr noundef nonnull align 8 dereferenceable(32) %18)
  %20 = load ptr, ptr %5, align 8, !tbaa !227
  %21 = load ptr, ptr %6, align 8, !tbaa !231
  invoke void @_ZNSt16allocator_traitsISaISt10_List_nodeIN3net18AckListenerWrapperEEEE9constructIS2_JRPNS1_24QuicAckListenerInterfaceERtEEEvRS4_PT_DpOT0_(ptr noundef nonnull align 1 dereferenceable(1) %17, ptr noundef %19, ptr noundef nonnull align 8 dereferenceable(8) %20, ptr noundef nonnull align 2 dereferenceable(2) %21)
          to label %22 unwind label %25

22:                                               ; preds = %3
  %23 = call noundef nonnull align 8 dereferenceable(16) ptr @_ZNSt15__allocated_ptrISaISt10_List_nodeIN3net18AckListenerWrapperEEEEaSEDn(ptr noundef nonnull align 8 dereferenceable(16) %9, ptr null) #16
  %24 = load ptr, ptr %7, align 8, !tbaa !361
  call void @_ZNSt15__allocated_ptrISaISt10_List_nodeIN3net18AckListenerWrapperEEEED2Ev(ptr noundef nonnull align 8 dereferenceable(16) %9) #16
  call void @llvm.lifetime.end.p0(i64 16, ptr %9) #16
  call void @llvm.lifetime.end.p0(i64 8, ptr %8) #16
  call void @llvm.lifetime.end.p0(i64 8, ptr %7) #16
  ret ptr %24

25:                                               ; preds = %3
  %26 = landingpad { ptr, i32 }
          cleanup
  %27 = extractvalue { ptr, i32 } %26, 0
  store ptr %27, ptr %10, align 8
  %28 = extractvalue { ptr, i32 } %26, 1
  store i32 %28, ptr %11, align 4
  call void @_ZNSt15__allocated_ptrISaISt10_List_nodeIN3net18AckListenerWrapperEEEED2Ev(ptr noundef nonnull align 8 dereferenceable(16) %9) #16
  call void @llvm.lifetime.end.p0(i64 16, ptr %9) #16
  call void @llvm.lifetime.end.p0(i64 8, ptr %8) #16
  call void @llvm.lifetime.end.p0(i64 8, ptr %7) #16
  br label %29

29:                                               ; preds = %25
  %30 = load ptr, ptr %10, align 8
  %31 = load i32, ptr %11, align 4
  %32 = insertvalue { ptr, i32 } poison, ptr %30, 0
  %33 = insertvalue { ptr, i32 } %32, i32 %31, 1
  resume { ptr, i32 } %33
}

; Function Attrs: mustprogress nounwind uwtable
define linkonce_odr void @_ZNSt14_List_iteratorIN3net18AckListenerWrapperEEC2EPNSt8__detail15_List_node_baseE(ptr noundef nonnull align 8 dereferenceable(8) %0, ptr noundef %1) unnamed_addr #1 comdat align 2 {
  %3 = alloca ptr, align 8
  %4 = alloca ptr, align 8
  store ptr %0, ptr %3, align 8, !tbaa !405
  store ptr %1, ptr %4, align 8, !tbaa !360
  %5 = load ptr, ptr %3, align 8
  %6 = getelementptr inbounds nuw %"struct.std::_List_iterator", ptr %5, i32 0, i32 0
  %7 = load ptr, ptr %4, align 8, !tbaa !360
  store ptr %7, ptr %6, align 8, !tbaa !394
  ret void
}

; Function Attrs: mustprogress uwtable
define linkonce_odr void @_ZNSt7__cxx114listIN3net18AckListenerWrapperESaIS2_EE9_M_insertIJRPNS1_24QuicAckListenerInterfaceERtEEEvSt14_List_iteratorIS2_EDpOT_(ptr noundef nonnull align 8 dereferenceable(24) %0, ptr %1, ptr noundef nonnull align 8 dereferenceable(8) %2, ptr noundef nonnull align 2 dereferenceable(2) %3) #0 comdat align 2 {
  %5 = alloca %"struct.std::_List_iterator", align 8
  %6 = alloca ptr, align 8
  %7 = alloca ptr, align 8
  %8 = alloca ptr, align 8
  %9 = alloca ptr, align 8
  %10 = getelementptr inbounds nuw %"struct.std::_List_iterator", ptr %5, i32 0, i32 0
  store ptr %1, ptr %10, align 8
  store ptr %0, ptr %6, align 8, !tbaa !198
  store ptr %2, ptr %7, align 8, !tbaa !227
  store ptr %3, ptr %8, align 8, !tbaa !231
  %11 = load ptr, ptr %6, align 8
  call void @llvm.lifetime.start.p0(i64 8, ptr %9) #16
  %12 = load ptr, ptr %7, align 8, !tbaa !227
  %13 = load ptr, ptr %8, align 8, !tbaa !231
  %14 = call noundef ptr @_ZNSt7__cxx114listIN3net18AckListenerWrapperESaIS2_EE14_M_create_nodeIJRPNS1_24QuicAckListenerInterfaceERtEEEPSt10_List_nodeIS2_EDpOT_(ptr noundef nonnull align 8 dereferenceable(24) %11, ptr noundef nonnull align 8 dereferenceable(8) %12, ptr noundef nonnull align 2 dereferenceable(2) %13)
  store ptr %14, ptr %9, align 8, !tbaa !361
  %15 = load ptr, ptr %9, align 8, !tbaa !361
  %16 = getelementptr inbounds nuw %"struct.std::_List_iterator", ptr %5, i32 0, i32 0
  %17 = load ptr, ptr %16, align 8, !tbaa !394
  call void @_ZNSt8__detail15_List_node_base7_M_hookEPS0_(ptr noundef nonnull align 8 dereferenceable(16) %15, ptr noundef %17) #16
  call void @_ZNSt7__cxx1110_List_baseIN3net18AckListenerWrapperESaIS2_EE11_M_inc_sizeEm(ptr noundef nonnull align 8 dereferenceable(24) %11, i64 noundef 1)
  call void @llvm.lifetime.end.p0(i64 8, ptr %9) #16
  ret void
}

; Function Attrs: mustprogress nounwind uwtable
define linkonce_odr ptr @_ZNSt7__cxx114listIN3net18AckListenerWrapperESaIS2_EE3endEv(ptr noundef nonnull align 8 dereferenceable(24) %0) #1 comdat align 2 {
  %2 = alloca %"struct.std::_List_iterator", align 8
  %3 = alloca ptr, align 8
  store ptr %0, ptr %3, align 8, !tbaa !198
  %4 = load ptr, ptr %3, align 8
  %5 = getelementptr inbounds nuw %"class.std::__cxx11::_List_base", ptr %4, i32 0, i32 0
  %6 = getelementptr inbounds nuw %"struct.std::__cxx11::_List_base<net::AckListenerWrapper, std::allocator<net::AckListenerWrapper>>::_List_impl", ptr %5, i32 0, i32 0
  call void @_ZNSt14_List_iteratorIN3net18AckListenerWrapperEEC2EPNSt8__detail15_List_node_baseE(ptr noundef nonnull align 8 dereferenceable(8) %2, ptr noundef %6) #16
  %7 = getelementptr inbounds nuw %"struct.std::_List_iterator", ptr %2, i32 0, i32 0
  %8 = load ptr, ptr %7, align 8
  ret ptr %8
}

; Function Attrs: mustprogress uwtable
define linkonce_odr void @_ZNSt7__cxx114listIN3net18AckListenerWrapperESaIS2_EE12emplace_backIJRPNS1_24QuicAckListenerInterfaceERtEEEvDpOT_(ptr noundef nonnull align 8 dereferenceable(24) %0, ptr noundef nonnull align 8 dereferenceable(8) %1, ptr noundef nonnull align 2 dereferenceable(2) %2) #0 comdat align 2 {
  %4 = alloca ptr, align 8
  %5 = alloca ptr, align 8
  %6 = alloca ptr, align 8
  %7 = alloca %"struct.std::_List_iterator", align 8
  store ptr %0, ptr %4, align 8, !tbaa !198
  store ptr %1, ptr %5, align 8, !tbaa !227
  store ptr %2, ptr %6, align 8, !tbaa !231
  %8 = load ptr, ptr %4, align 8
  %9 = call ptr @_ZNSt7__cxx114listIN3net18AckListenerWrapperESaIS2_EE3endEv(ptr noundef nonnull align 8 dereferenceable(24) %8) #16
  %10 = getelementptr inbounds nuw %"struct.std::_List_iterator", ptr %7, i32 0, i32 0
  store ptr %9, ptr %10, align 8
  %11 = load ptr, ptr %5, align 8, !tbaa !227
  %12 = load ptr, ptr %6, align 8, !tbaa !231
  %13 = getelementptr inbounds nuw %"struct.std::_List_iterator", ptr %7, i32 0, i32 0
  %14 = load ptr, ptr %13, align 8
  call void @_ZNSt7__cxx114listIN3net18AckListenerWrapperESaIS2_EE9_M_insertIJRPNS1_24QuicAckListenerInterfaceERtEEEvSt14_List_iteratorIS2_EDpOT_(ptr noundef nonnull align 8 dereferenceable(24) %8, ptr %14, ptr noundef nonnull align 8 dereferenceable(8) %11, ptr noundef nonnull align 2 dereferenceable(2) %12)
  ret void
}

; Function Attrs: mustprogress uwtable
define void @_ZN3net17QuicPacketCreator14AddAckListenerEPNS_24QuicAckListenerInterfaceEt(ptr noundef nonnull align 8 dereferenceable(312) %0, ptr noundef %1, i16 noundef zeroext %2) #0 align 2 {
  %4 = alloca ptr, align 8
  %5 = alloca ptr, align 8
  %6 = alloca i16, align 2
  store ptr %0, ptr %4, align 8, !tbaa !3
  store ptr %1, ptr %5, align 8, !tbaa !202
  store i16 %2, ptr %6, align 2, !tbaa !153
  %7 = load ptr, ptr %4, align 8
  %8 = getelementptr inbounds nuw %"class.net::QuicPacketCreator", ptr %7, i32 0, i32 16
  %9 = getelementptr inbounds nuw %"struct.net::SerializedPacket", ptr %8, i32 0, i32 15
  call void @_ZNSt7__cxx114listIN3net18AckListenerWrapperESaIS2_EE12emplace_backIJRPNS1_24QuicAckListenerInterfaceERtEEEvDpOT_(ptr noundef nonnull align 8 dereferenceable(24) %9, ptr noundef nonnull align 8 dereferenceable(8) %5, ptr noundef nonnull align 2 dereferenceable(2) %6)
  ret void
}