; Function Attrs: mustprogress uwtable
define void @_ZN3net17QuicPacketCreator14AddAckListenerEPNS_24QuicAckListenerInterfaceEt(ptr noundef nonnull align 8 dereferenceable(312) %0, ptr noundef %1, i16 noundef zeroext %2) local_unnamed_addr #0 align 2 personality ptr @__gxx_personality_v0 {
  %4 = tail call noalias noundef nonnull dereferenceable(32) ptr @_Znwm(i64 noundef 32) #25
  %5 = getelementptr inbounds nuw i8, ptr %4, i64 16
  invoke void @_ZN3net18AckListenerWrapperC1EPNS_24QuicAckListenerInterfaceEt(ptr noundef nonnull align 8 dereferenceable(10) %5, ptr noundef %1, i16 noundef zeroext %2)
          to label %_ZNSt7__cxx114listIN3net18AckListenerWrapperESaIS2_EE12emplace_backIJRPNS1_24QuicAckListenerInterfaceERtEEEvDpOT_.exit unwind label %_ZNSt15__allocated_ptrISaISt10_List_nodeIN3net18AckListenerWrapperEEEED2Ev.exit10.i.i.i

_ZNSt15__allocated_ptrISaISt10_List_nodeIN3net18AckListenerWrapperEEEED2Ev.exit10.i.i.i: ; preds = %3
  %6 = landingpad { ptr, i32 }
          cleanup
  tail call void @_ZdlPv(ptr noundef nonnull %4) #22
  resume { ptr, i32 } %6

_ZNSt7__cxx114listIN3net18AckListenerWrapperESaIS2_EE12emplace_backIJRPNS1_24QuicAckListenerInterfaceERtEEEvDpOT_.exit: ; preds = %3
  %7 = getelementptr inbounds nuw i8, ptr %0, i64 232
  tail call void @_ZNSt8__detail15_List_node_base7_M_hookEPS0_(ptr noundef nonnull align 8 dereferenceable(16) %4, ptr noundef nonnull align 8 dereferenceable(24) %7) #21
  %8 = getelementptr inbounds nuw i8, ptr %0, i64 248
  %9 = load i64, ptr %8, align 8, !tbaa !204
  %10 = add i64 %9, 1
  store i64 %10, ptr %8, align 8, !tbaa !204
  ret void
}